(dp0
S'wind_speed'
p1
(lp2
F45.0
aF52.0
aF51.0
aF45.0
aF29.0
aF43.0
aF54.0
aF58.0
aF66.0
aF54.0
aF66.0
aF70.0
aF82.0
aF97.0
aF157.0
aF15.0
aF14.0
aF20.0
aF26.0
aF31.0
aF21.0
aF23.0
aF4.0
aF10.0
aF14.0
aF19.0
aF17.0
aF4.0
aF9.0
aF27.0
aF44.0
aF61.0
aF50.0
aF45.0
aF80.0
aF113.0
aF129.0
aF22.0
aF13.0
aF17.0
aF15.0
aF21.0
aF22.0
aF11.0
aF19.0
aF12.0
aF24.0
aF54.0
aF76.0
aF90.0
aF106.0
aF118.0
aF14.0
aF12.0
aF12.0
aF18.0
aF34.0
aF22.0
aF20.0
aF16.0
aF13.0
aF14.0
aF31.0
aF63.0
aF69.0
aF78.0
aF79.0
aF93.0
aF3.0
aF26.0
aF22.0
aF24.0
aF29.0
aF37.0
aF51.0
aF39.0
aF3.0
aF8.0
aF38.0
aF29.0
aF23.0
aF25.0
aF46.0
aF31.0
aF23.0
aF27.0
aF28.0
aF37.0
aF65.0
aF71.0
aF83.0
aF90.0
aF111.0
aF4.0
aF15.0
aF22.0
aF28.0
aF38.0
aF46.0
aF37.0
aF27.0
aF30.0
aF39.0
aF52.0
aF82.0
aF118.0
aF132.0
aF144.0
asS'pressure'
p3
(lp4
F1198.0
aF2656.0
aF4361.0
aF5843.0
aF7305.0
aF8680.0
aF10649.0
aF13160.0
aF14505.0
aF17338.0
aF19874.0
aF21840.0
aF24116.0
aF26120.0
aF29799.0
aF1156.0
aF1989.0
aF3253.0
aF7303.0
aF9561.0
aF11360.0
aF13737.0
aF16096.0
aF21341.0
aF24320.0
aF27040.0
aF31094.0
aF13.0
aF1420.0
aF2820.0
aF8650.0
aF9790.0
aF11815.0
aF15420.0
aF18908.0
aF21737.0
aF24501.0
aF569.0
aF1137.0
aF2422.0
aF3217.0
aF4877.0
aF6800.0
aF8690.0
aF9850.0
aF11260.0
aF13252.0
aF17559.0
aF20726.0
aF23470.0
aF26494.0
aF30940.0
aF305.0
aF1333.0
aF3297.0
aF4267.0
aF5486.0
aF7457.0
aF8693.0
aF9924.0
aF11260.0
aF12497.0
aF14492.0
aF18288.0
aF21336.0
aF23470.0
aF26026.0
aF28211.0
aF33.0
aF1219.0
aF2134.0
aF3471.0
aF4481.0
aF5680.0
aF8534.0
aF9635.0
aF103.0
aF610.0
aF1524.0
aF2836.0
aF4096.0
aF5484.0
aF7262.0
aF9144.0
aF10279.0
aF11752.0
aF14139.0
aF16133.0
aF19507.0
aF22860.0
aF26217.0
aF27947.0
aF32279.0
aF305.0
aF914.0
aF2309.0
aF3838.0
aF5350.0
aF7759.0
aF9449.0
aF10668.0
aF12044.0
aF13869.0
aF16760.0
aF20726.0
aF23765.0
aF27250.0
aF30828.0
asS'temperature'
p5
(lp6
F0.2
aF-9.7
aF-22.0
aF-34.7
aF-44.8
aF-51.9
aF-52.3
aF-51.1
aF-50.8
aF-54.3
aF-52.2
aF-55.5
aF-53.3
aF-51.1
aF-36.3
aF-23.5
aF-22.5
aF-27.5
aF-54.5
aF-63.9
aF-63.3
aF-69.7
aF-65.6
aF-46.8
aF-44.7
aF-41.5
aF-36.9
aF-6.3
aF-9.7
aF-17.3
aF-57.7
aF-61.3
aF-64.0
aF-65.1
aF-69.2
aF-74.7
aF-65.7
aF-5.9
aF-5.3
aF-11.3
aF-17.3
aF-27.4
aF-44.1
aF-53.7
aF-56.3
aF-56.5
aF-56.1
aF-55.7
aF-46.3
aF-43.4
aF-43.1
aF-36.7
aF-2.2
aF-5.7
aF-17.5
aF-24.1
aF-34.2
aF-49.9
aF-51.3
aF-54.7
aF-53.1
aF-53.8
aF-54.3
aF-49.7
aF-44.9
aF-44.4
aF-43.3
aF-36.9
aF-1.9
aF-5.3
aF-10.4
aF-18.3
aF-21.5
aF-31.1
aF-54.7
aF-56.3
aF-8.9
aF0.0
aF-4.4
aF-15.3
aF-23.7
aF-34.9
aF-44.9
aF-51.7
aF-53.1
aF-53.3
aF-54.5
aF-51.3
aF-51.9
aF-45.9
aF-43.5
aF-40.7
aF-37.9
aF-4.1
aF-0.8
aF-8.3
aF-19.3
aF-28.1
aF-49.5
aF-58.9
aF-56.4
aF-55.9
aF-57.7
aF-58.1
aF-56.2
aF-47.9
aF-45.5
aF-39.5
asS'latitude'
p7
(lp8
F51.93
aF51.93
aF51.93
aF51.93
aF51.93
aF51.93
aF51.93
aF51.93
aF51.93
aF51.93
aF51.93
aF51.93
aF51.93
aF51.93
aF51.93
aF68.7
aF68.7
aF68.7
aF68.7
aF68.7
aF68.7
aF68.7
aF68.7
aF68.7
aF68.7
aF68.7
aF68.7
aF61.15
aF61.15
aF61.15
aF61.15
aF61.15
aF61.15
aF61.15
aF61.15
aF61.15
aF61.15
aF66.86
aF66.86
aF66.86
aF66.86
aF66.86
aF66.86
aF66.86
aF66.86
aF66.86
aF66.86
aF66.86
aF66.86
aF66.86
aF66.86
aF66.86
aF64.5
aF64.5
aF64.5
aF64.5
aF64.5
aF64.5
aF64.5
aF64.5
aF64.5
aF64.5
aF64.5
aF64.5
aF64.5
aF64.5
aF64.5
aF64.5
aF60.78
aF60.78
aF60.78
aF60.78
aF60.78
aF60.78
aF60.78
aF60.78
aF62.96
aF62.96
aF62.96
aF62.96
aF62.96
aF62.96
aF62.96
aF62.96
aF62.96
aF62.96
aF62.96
aF62.96
aF62.96
aF62.96
aF62.96
aF62.96
aF62.96
aF64.81
aF64.81
aF64.81
aF64.81
aF64.81
aF64.81
aF64.81
aF64.81
aF64.81
aF64.81
aF64.81
aF64.81
aF64.81
aF64.81
aF64.81
asS'wind_direction'
p9
(lp10
F235.0
aF235.0
aF235.0
aF225.0
aF250.0
aF240.0
aF240.0
aF240.0
aF245.0
aF255.0
aF265.0
aF265.0
aF268.0
aF270.0
aF280.0
aF235.0
aF247.0
aF275.0
aF271.0
aF260.0
aF255.0
aF258.0
aF210.0
aF165.0
aF95.0
aF105.0
aF103.0
aF33.0
aF298.0
aF295.0
aF315.0
aF305.0
aF290.0
aF275.0
aF280.0
aF267.0
aF263.0
aF115.0
aF135.0
aF184.0
aF166.0
aF170.0
aF170.0
aF130.0
aF195.0
aF230.0
aF242.0
aF274.0
aF285.0
aF285.0
aF300.0
aF305.0
aF100.0
aF72.0
aF109.0
aF140.0
aF140.0
aF131.0
aF131.0
aF135.0
aF180.0
aF240.0
aF251.0
aF275.0
aF285.0
aF285.0
aF295.0
aF305.0
aF70.0
aF150.0
aF160.0
aF165.0
aF202.0
aF205.0
aF230.0
aF208.0
aF110.0
aF145.0
aF190.0
aF166.0
aF195.0
aF205.0
aF244.0
aF225.0
aF220.0
aF220.0
aF247.0
aF267.0
aF300.0
aF305.0
aF295.0
aF312.0
aF317.0
aF160.0
aF145.0
aF200.0
aF174.0
aF180.0
aF179.0
aF180.0
aF240.0
aF234.0
aF258.0
aF277.0
aF290.0
aF310.0
aF315.0
aF321.0
asS'humidity'
p11
(lp12
F77.0
aF38.0
aF22.0
aF71.0
aF72.0
aF3.0
aF1.0
aF1.0
aF1.0
aF1.0
aF1.0
aF1.0
aF1.0
aF1.0
aF1.0
aF83.0
aF18.0
aF57.0
aF32.0
aF38.0
aF16.0
aF30.0
aF12.0
aF1.0
aF1.0
aF1.0
aF1.0
aF35.0
aF52.0
aF8.0
aF8.0
aF29.0
aF20.0
aF18.0
aF26.0
aF33.0
aF20.0
aF96.0
aF100.0
aF93.0
aF77.0
aF77.0
aF51.0
aF32.0
aF18.0
aF13.0
aF8.0
aF3.0
aF2.0
aF1.0
aF1.0
aF1.0
aF89.0
aF93.0
aF93.0
aF62.0
aF32.0
aF23.0
aF1.0
aF1.0
aF1.0
aF1.0
aF1.0
aF1.0
aF1.0
aF1.0
aF1.0
aF1.0
aF97.0
aF81.0
aF58.0
aF37.0
aF20.0
aF66.0
aF58.0
aF10.0
aF84.0
aF74.0
aF69.0
aF83.0
aF71.0
aF54.0
aF8.0
aF3.0
aF1.0
aF1.0
aF1.0
aF1.0
aF1.0
aF1.0
aF1.0
aF1.0
aF1.0
aF82.0
aF57.0
aF78.0
aF79.0
aF67.0
aF39.0
aF33.0
aF12.0
aF6.0
aF2.0
aF1.0
aF1.0
aF1.0
aF1.0
aF1.0
asS'longitude'
p13
(lp14
F-10.25
aF-10.25
aF-10.25
aF-10.25
aF-10.25
aF-10.25
aF-10.25
aF-10.25
aF-10.25
aF-10.25
aF-10.25
aF-10.25
aF-10.25
aF-10.25
aF-10.25
aF-52.85
aF-52.85
aF-52.85
aF-52.85
aF-52.85
aF-52.85
aF-52.85
aF-52.85
aF-52.85
aF-52.85
aF-52.85
aF-52.85
aF-45.43
aF-45.43
aF-45.43
aF-45.43
aF-45.43
aF-45.43
aF-45.43
aF-45.43
aF-45.43
aF-45.43
aF-162.63
aF-162.63
aF-162.63
aF-162.63
aF-162.63
aF-162.63
aF-162.63
aF-162.63
aF-162.63
aF-162.63
aF-162.63
aF-162.63
aF-162.63
aF-162.63
aF-162.63
aF-165.43
aF-165.43
aF-165.43
aF-165.43
aF-165.43
aF-165.43
aF-165.43
aF-165.43
aF-165.43
aF-165.43
aF-165.43
aF-165.43
aF-165.43
aF-165.43
aF-165.43
aF-165.43
aF-161.84
aF-161.84
aF-161.84
aF-161.84
aF-161.84
aF-161.84
aF-161.84
aF-161.84
aF-155.61
aF-155.61
aF-155.61
aF-155.61
aF-155.61
aF-155.61
aF-155.61
aF-155.61
aF-155.61
aF-155.61
aF-155.61
aF-155.61
aF-155.61
aF-155.61
aF-155.61
aF-155.61
aF-155.61
aF-147.88
aF-147.88
aF-147.88
aF-147.88
aF-147.88
aF-147.88
aF-147.88
aF-147.88
aF-147.88
aF-147.88
aF-147.88
aF-147.88
aF-147.88
aF-147.88
aF-147.88
asS'height'
p15
(lp16
F850.0
aF706.0
aF563.0
aF458.0
aF370.0
aF300.0
aF221.0
aF150.0
aF122.0
aF78.6
aF53.0
aF39.0
aF27.3
aF20.0
aF11.4
aF873.0
aF779.0
aF655.0
aF361.0
aF252.0
aF188.0
aF127.0
aF91.0
aF47.0
aF30.0
aF20.0
aF11.1
aF1007.0
aF841.0
aF700.0
aF300.0
aF250.0
aF180.0
aF100.0
aF56.0
aF34.8
aF21.9
aF931.0
aF866.0
aF734.0
aF661.0
aF527.3
aF400.0
aF300.0
aF250.0
aF200.0
aF146.0
aF74.2
aF45.5
aF30.2
aF19.2
aF10.0
aF959.3
aF842.0
aF652.0
aF571.8
aF482.1
aF360.0
aF298.0
aF246.0
aF200.0
aF165.0
aF121.0
aF67.5
aF42.6
aF31.0
aF21.2
aF15.4
aF990.0
aF853.2
aF758.4
aF636.0
aF555.0
aF470.0
aF307.9
aF259.0
aF990.0
aF928.0
aF827.2
aF698.0
aF589.0
aF485.0
aF374.0
aF280.4
aF235.0
aF187.0
aF129.0
aF94.7
aF56.1
aF33.7
aF20.4
aF15.8
aF8.4
aF967.6
aF896.5
aF752.0
aF615.0
aF500.0
aF352.0
aF269.7
aF222.5
aF179.0
aF134.0
aF84.6
aF45.3
aF28.3
aF16.7
aF9.8
as.