(dp0
S'wind_speed'
p1
(lp2
F23.0
aF25.0
aF52.0
aF74.0
aF43.0
aF19.0
aF38.0
aF79.0
aF17.0
aF1.0
aF11.0
aF18.0
aF18.0
aF27.0
aF26.0
aF32.0
aF31.0
aF26.0
aF47.0
aF53.0
aF53.0
aF76.0
aF31.0
aF45.0
aF19.0
aF29.0
aF65.0
aF18.0
aF35.0
aF22.0
aF58.0
aF32.0
aF35.0
aF2.0
aF16.0
aF18.0
aF21.0
aF19.0
aF21.0
aF31.0
aF39.0
aF31.0
aF16.0
aF33.0
aF71.0
aF98.0
aF107.0
aF114.0
aF134.0
aF169.0
aF38.0
aF30.0
aF42.0
aF40.0
aF40.0
aF61.0
aF73.0
aF75.0
aF42.0
aF27.0
aF43.0
aF69.0
aF101.0
aF98.0
aF102.0
aF140.0
aF34.0
aF25.0
aF29.0
aF23.0
aF15.0
aF19.0
aF46.0
aF45.0
aF36.0
aF31.0
aF38.0
aF46.0
aF73.0
aF63.0
aF89.0
aF112.0
aF3.0
aF19.0
aF17.0
aF11.0
aF25.0
aF24.0
aF52.0
aF47.0
aF21.0
aF24.0
aF17.0
aF42.0
aF45.0
aF78.0
aF73.0
aF88.0
aF3.0
aF12.0
aF4.0
aF15.0
aF12.0
aF22.0
aF11.0
aF28.0
aF33.0
aF18.0
aF13.0
aF32.0
aF42.0
aF54.0
aF61.0
aF80.0
aF97.0
aF115.0
aF126.0
asS'pressure'
p3
(lp4
F1185.0
aF3583.0
aF6795.0
aF10357.0
aF13390.0
aF18025.0
aF21321.0
aF27536.0
aF627.0
aF1859.0
aF4020.0
aF5774.0
aF7619.0
aF9601.0
aF11153.0
aF16562.0
aF20389.0
aF25665.0
aF5.0
aF701.0
aF2652.0
aF3302.0
aF6936.0
aF9557.0
aF11283.0
aF13655.0
aF19352.0
aF266.0
aF2034.0
aF5270.0
aF10013.0
aF12979.0
aF305.0
aF1228.0
aF2134.0
aF2972.0
aF4267.0
aF5791.0
aF6920.0
aF7913.0
aF10020.0
aF11765.0
aF12517.0
aF14222.0
aF18288.0
aF22204.0
aF25028.0
aF28056.0
aF29870.0
aF33120.0
aF433.0
aF1073.0
aF2275.0
aF2741.0
aF3924.0
aF5889.0
aF7504.0
aF9905.0
aF11278.0
aF12803.0
aF15640.0
aF19066.0
aF23165.0
aF25867.0
aF28077.0
aF31083.0
aF914.0
aF2365.0
aF3048.0
aF3962.0
aF5486.0
aF6780.0
aF8573.0
aF9840.0
aF11209.0
aF13255.0
aF15240.0
aF18593.0
aF20773.0
aF23226.0
aF27432.0
aF29870.0
aF171.0
aF680.0
aF1524.0
aF2723.0
aF3742.0
aF5280.0
aF7570.0
aF9940.0
aF11393.0
aF13066.0
aF14021.0
aF15240.0
aF17983.0
aF20726.0
aF23640.0
aF27160.0
aF187.0
aF789.0
aF1829.0
aF3103.0
aF4151.0
aF5486.0
aF6739.0
aF8295.0
aF10000.0
aF11033.0
aF12373.0
aF14033.0
aF15770.0
aF17983.0
aF20659.0
aF23774.0
aF26521.0
aF28442.0
aF31230.0
asS'temperature'
p5
(lp6
F-3.7
aF-16.8
aF-35.7
aF-57.1
aF-57.1
aF-60.7
aF-61.5
aF-61.5
aF-10.1
aF-10.9
aF-24.4
aF-36.3
aF-50.4
aF-62.1
aF-63.9
aF-74.4
aF-81.4
aF-80.2
aF0.2
aF-2.5
aF-18.3
aF-17.8
aF-41.3
aF-62.3
aF-56.5
aF-60.5
aF-77.3
aF-7.7
aF-18.9
aF-27.3
aF-64.6
aF-63.7
aF-6.8
aF-3.7
aF-5.5
aF-9.7
aF-17.6
aF-27.2
aF-35.9
aF-43.5
aF-60.7
aF-73.1
aF-63.7
aF-59.9
aF-55.7
aF-50.1
aF-46.1
aF-46.7
aF-39.5
aF-36.9
aF-4.3
aF-4.3
aF-10.9
aF-13.5
aF-16.5
aF-28.7
aF-42.3
aF-59.3
aF-63.7
aF-57.9
aF-54.1
aF-50.5
aF-51.1
aF-44.5
aF-38.5
aF-34.6
aF-3.0
aF-10.5
aF-14.0
aF-19.3
aF-30.3
aF-40.3
aF-52.7
aF-57.5
aF-59.1
aF-52.1
aF-51.1
aF-50.6
aF-48.1
aF-47.9
aF-42.2
aF-34.4
aF-19.3
aF-5.5
aF-5.8
aF-13.9
aF-16.3
aF-26.5
aF-41.7
aF-59.9
aF-59.1
aF-57.1
aF-56.0
aF-52.0
aF-48.5
aF-48.9
aF-47.7
aF-45.3
aF-8.7
aF-4.7
aF-5.9
aF-12.7
aF-17.9
aF-27.1
aF-35.7
aF-47.5
aF-61.3
aF-62.3
aF-56.1
aF-55.1
aF-54.1
aF-49.0
aF-51.9
aF-51.2
aF-47.1
aF-40.9
aF-39.7
asS'latitude'
p7
(lp8
F51.93
aF51.93
aF51.93
aF51.93
aF51.93
aF51.93
aF51.93
aF51.93
aF68.7
aF68.7
aF68.7
aF68.7
aF68.7
aF68.7
aF68.7
aF68.7
aF68.7
aF68.7
aF61.15
aF61.15
aF61.15
aF61.15
aF61.15
aF61.15
aF61.15
aF61.15
aF61.15
aF65.6
aF65.6
aF65.6
aF65.6
aF65.6
aF66.86
aF66.86
aF66.86
aF66.86
aF66.86
aF66.86
aF66.86
aF66.86
aF66.86
aF66.86
aF66.86
aF66.86
aF66.86
aF66.86
aF66.86
aF66.86
aF66.86
aF66.86
aF64.5
aF64.5
aF64.5
aF64.5
aF64.5
aF64.5
aF64.5
aF64.5
aF64.5
aF64.5
aF64.5
aF64.5
aF64.5
aF64.5
aF64.5
aF64.5
aF60.78
aF60.78
aF60.78
aF60.78
aF60.78
aF60.78
aF60.78
aF60.78
aF60.78
aF60.78
aF60.78
aF60.78
aF60.78
aF60.78
aF60.78
aF60.78
aF62.96
aF62.96
aF62.96
aF62.96
aF62.96
aF62.96
aF62.96
aF62.96
aF62.96
aF62.96
aF62.96
aF62.96
aF62.96
aF62.96
aF62.96
aF62.96
aF64.81
aF64.81
aF64.81
aF64.81
aF64.81
aF64.81
aF64.81
aF64.81
aF64.81
aF64.81
aF64.81
aF64.81
aF64.81
aF64.81
aF64.81
aF64.81
aF64.81
aF64.81
aF64.81
asS'wind_direction'
p9
(lp10
F52.0
aF60.0
aF35.0
aF10.0
aF340.0
aF330.0
aF261.0
aF248.0
aF89.0
aF255.0
aF200.0
aF195.0
aF215.0
aF225.0
aF245.0
aF240.0
aF240.0
aF270.0
aF60.0
aF55.0
aF100.0
aF120.0
aF139.0
aF100.0
aF170.0
aF175.0
aF225.0
aF25.0
aF80.0
aF165.0
aF215.0
aF235.0
aF105.0
aF160.0
aF120.0
aF113.0
aF105.0
aF130.0
aF100.0
aF104.0
aF95.0
aF128.0
aF161.0
aF211.0
aF230.0
aF239.0
aF245.0
aF246.0
aF250.0
aF260.0
aF120.0
aF127.0
aF125.0
aF125.0
aF123.0
aF116.0
aF105.0
aF110.0
aF115.0
aF155.0
aF220.0
aF227.0
aF230.0
aF240.0
aF236.0
aF240.0
aF195.0
aF189.0
aF190.0
aF195.0
aF205.0
aF175.0
aF115.0
aF115.0
aF134.0
aF195.0
aF200.0
aF230.0
aF225.0
aF239.0
aF235.0
aF250.0
aF31.0
aF117.0
aF210.0
aF161.0
aF126.0
aF120.0
aF105.0
aF100.0
aF130.0
aF175.0
aF210.0
aF225.0
aF240.0
aF235.0
aF240.0
aF254.0
aF27.0
aF98.0
aF35.0
aF118.0
aF112.0
aF60.0
aF71.0
aF51.0
aF60.0
aF41.0
aF185.0
aF238.0
aF245.0
aF250.0
aF258.0
aF250.0
aF265.0
aF267.0
aF272.0
asS'humidity'
p11
(lp12
F30.0
aF1.0
aF10.0
aF10.0
aF1.0
aF1.0
aF1.0
aF1.0
aF91.0
aF13.0
aF71.0
aF75.0
aF59.0
aF29.0
aF13.0
aF10.0
aF17.0
aF10.0
aF47.0
aF46.0
aF99.0
aF54.0
aF96.0
aF29.0
aF15.0
aF12.0
aF16.0
aF42.0
aF84.0
aF71.0
aF43.0
aF24.0
aF62.0
aF23.0
aF8.0
aF24.0
aF33.0
aF20.0
aF49.0
aF51.0
aF26.0
aF29.0
aF18.0
aF6.0
aF1.0
aF1.0
aF1.0
aF1.0
aF1.0
aF1.0
aF42.0
aF80.0
aF80.0
aF83.0
aF14.0
aF13.0
aF23.0
aF9.0
aF13.0
aF3.0
aF1.0
aF1.0
aF1.0
aF1.0
aF1.0
aF1.0
aF91.0
aF91.0
aF38.0
aF50.0
aF35.0
aF61.0
aF48.0
aF10.0
aF8.0
aF5.0
aF6.0
aF6.0
aF7.0
aF8.0
aF5.0
aF3.0
aF88.0
aF58.0
aF59.0
aF74.0
aF32.0
aF42.0
aF5.0
aF30.0
aF8.0
aF1.0
aF1.0
aF1.0
aF1.0
aF1.0
aF1.0
aF1.0
aF85.0
aF42.0
aF47.0
aF36.0
aF14.0
aF53.0
aF28.0
aF39.0
aF22.0
aF16.0
aF6.0
aF1.0
aF1.0
aF1.0
aF1.0
aF1.0
aF1.0
aF1.0
aF1.0
asS'longitude'
p13
(lp14
F-10.25
aF-10.25
aF-10.25
aF-10.25
aF-10.25
aF-10.25
aF-10.25
aF-10.25
aF-52.85
aF-52.85
aF-52.85
aF-52.85
aF-52.85
aF-52.85
aF-52.85
aF-52.85
aF-52.85
aF-52.85
aF-45.43
aF-45.43
aF-45.43
aF-45.43
aF-45.43
aF-45.43
aF-45.43
aF-45.43
aF-45.43
aF-37.63
aF-37.63
aF-37.63
aF-37.63
aF-37.63
aF-162.63
aF-162.63
aF-162.63
aF-162.63
aF-162.63
aF-162.63
aF-162.63
aF-162.63
aF-162.63
aF-162.63
aF-162.63
aF-162.63
aF-162.63
aF-162.63
aF-162.63
aF-162.63
aF-162.63
aF-162.63
aF-165.43
aF-165.43
aF-165.43
aF-165.43
aF-165.43
aF-165.43
aF-165.43
aF-165.43
aF-165.43
aF-165.43
aF-165.43
aF-165.43
aF-165.43
aF-165.43
aF-165.43
aF-165.43
aF-161.84
aF-161.84
aF-161.84
aF-161.84
aF-161.84
aF-161.84
aF-161.84
aF-161.84
aF-161.84
aF-161.84
aF-161.84
aF-161.84
aF-161.84
aF-161.84
aF-161.84
aF-161.84
aF-155.61
aF-155.61
aF-155.61
aF-155.61
aF-155.61
aF-155.61
aF-155.61
aF-155.61
aF-155.61
aF-155.61
aF-155.61
aF-155.61
aF-155.61
aF-155.61
aF-155.61
aF-155.61
aF-147.88
aF-147.88
aF-147.88
aF-147.88
aF-147.88
aF-147.88
aF-147.88
aF-147.88
aF-147.88
aF-147.88
aF-147.88
aF-147.88
aF-147.88
aF-147.88
aF-147.88
aF-147.88
aF-147.88
aF-147.88
aF-147.88
asS'height'
p15
(lp16
F886.0
aF649.0
aF415.0
aF242.0
aF150.0
aF72.0
aF42.3
aF15.4
aF915.0
aF780.0
aF584.0
aF457.0
aF347.0
aF254.0
aF197.0
aF80.0
aF41.0
aF16.0
aF978.0
aF896.0
aF695.0
aF637.0
aF383.0
aF255.0
aF194.0
aF133.0
aF51.4
aF984.0
aF779.0
aF500.0
aF245.0
aF151.0
aF962.5
aF856.0
aF762.8
aF685.0
aF577.4
aF469.1
aF400.0
aF346.0
aF250.0
aF187.0
aF165.0
aF125.0
aF65.7
aF35.7
aF23.2
aF14.7
aF11.2
aF7.0
aF941.0
aF868.0
aF744.0
aF700.0
aF599.0
aF458.0
aF363.0
aF251.0
aF200.7
aF157.0
aF100.0
aF58.6
aF31.2
aF20.8
aF15.0
aF9.7
aF882.5
aF733.0
aF670.3
aF593.8
aF481.6
aF400.0
aF305.0
aF250.0
aF201.0
aF146.0
aF107.3
aF64.3
aF46.1
aF31.9
aF17.0
aF12.0
aF979.0
aF916.0
aF823.4
aF705.0
aF616.0
aF500.0
aF360.0
aF250.0
aF198.0
aF152.0
aF130.8
aF108.2
aF71.0
aF46.6
aF30.0
aF17.7
aF980.0
aF907.0
aF794.7
aF674.0
aF587.0
aF489.3
aF410.0
aF326.0
aF250.0
aF211.0
aF170.0
aF131.0
aF100.0
aF71.0
aF47.1
aF29.2
aF19.2
aF14.4
aF9.6
as.