(dp0
S'wind_speed'
p1
(lp2
F10.0
aF18.0
aF25.0
aF18.0
aF21.0
aF27.0
aF28.0
aF24.0
aF19.0
aF18.0
aF14.0
aF8.0
aF7.0
aF11.0
aF23.0
aF50.0
aF28.0
aF18.0
aF3.0
aF13.0
aF21.0
aF20.0
aF22.0
aF27.0
aF29.0
aF26.0
aF21.0
aF18.0
aF18.0
aF7.0
aF1.0
aF7.0
aF16.0
aF46.0
aF31.0
aF22.0
aF6.0
aF16.0
aF25.0
aF23.0
aF16.0
aF17.0
aF20.0
aF23.0
aF24.0
aF18.0
aF13.0
aF11.0
aF7.0
aF3.0
aF8.0
aF21.0
aF44.0
aF27.0
aF18.0
aF5.0
aF9.0
aF21.0
aF22.0
aF21.0
aF20.0
aF18.0
aF16.0
aF17.0
aF15.0
aF12.0
aF9.0
aF7.0
aF4.0
aF3.0
aF15.0
aF36.0
aF24.0
aF22.0
asS'pressure'
p3
(lp4
F914.6
aF900.0
aF850.0
aF800.0
aF750.0
aF700.0
aF650.0
aF600.0
aF550.0
aF500.0
aF450.0
aF400.0
aF350.0
aF300.0
aF250.0
aF200.0
aF150.0
aF100.0
aF916.9
aF900.0
aF850.0
aF800.0
aF750.0
aF700.0
aF650.0
aF600.0
aF550.0
aF500.0
aF450.0
aF400.0
aF350.0
aF300.0
aF250.0
aF200.0
aF150.0
aF100.0
aF942.3
aF925.0
aF900.0
aF850.0
aF800.0
aF750.0
aF700.0
aF650.0
aF600.0
aF550.0
aF500.0
aF450.0
aF400.0
aF350.0
aF300.0
aF250.0
aF200.0
aF150.0
aF100.0
aF932.0
aF925.0
aF900.0
aF850.0
aF800.0
aF750.0
aF700.0
aF650.0
aF600.0
aF550.0
aF500.0
aF450.0
aF400.0
aF350.0
aF300.0
aF250.0
aF200.0
aF150.0
aF100.0
asS'temperature'
p5
(lp6
F17.7
aF17.4
aF17.6
aF14.1
aF11.2
aF7.5
aF3.2
aF-0.8
aF-5.9
aF-10.9
aF-15.8
aF-21.3
aF-28.7
aF-37.7
aF-48.5
aF-60.7
aF-64.1
aF-62.4
aF17.1
aF17.2
aF16.4
aF13.2
aF11.0
aF7.5
aF2.8
aF-1.3
aF-5.5
aF-10.6
aF-15.6
aF-21.4
aF-28.6
aF-37.4
aF-47.9
aF-60.2
aF-64.0
aF-63.0
aF18.4
aF18.8
aF18.9
aF16.9
aF14.2
aF11.0
aF7.2
aF2.8
aF-1.5
aF-5.5
aF-10.6
aF-16.0
aF-21.7
aF-28.7
aF-37.6
aF-48.1
aF-60.2
aF-65.2
aF-62.8
aF17.8
aF18.1
aF18.7
aF16.2
aF14.1
aF11.7
aF7.7
aF2.7
aF-2.2
aF-5.8
aF-10.4
aF-16.0
aF-21.7
aF-28.7
aF-37.0
aF-47.4
aF-59.7
aF-65.3
aF-63.6
asS'latitude'
p7
(lp8
S'37.0000'
p9
aS''
p10
ag10
ag10
ag10
ag10
ag10
ag10
ag10
ag10
ag10
ag10
ag10
ag10
ag10
ag10
ag10
ag10
aS'36.0000'
p11
ag10
ag10
ag10
ag10
ag10
ag10
ag10
ag10
ag10
ag10
ag10
ag10
ag10
ag10
ag10
ag10
ag10
aS'37.0000'
p12
ag10
ag10
ag10
ag10
ag10
ag10
ag10
ag10
ag10
ag10
ag10
ag10
ag10
ag10
ag10
ag10
ag10
ag10
aS'36.0000'
p13
ag10
ag10
ag10
ag10
ag10
ag10
ag10
ag10
ag10
ag10
ag10
ag10
ag10
ag10
ag10
ag10
ag10
ag10
asS'wind_direction'
p14
(lp15
F194.0
aF197.0
aF215.0
aF206.0
aF196.0
aF193.0
aF186.0
aF188.0
aF193.0
aF209.0
aF217.0
aF212.0
aF193.0
aF225.0
aF232.0
aF238.0
aF247.0
aF243.0
aF212.0
aF206.0
aF214.0
aF213.0
aF199.0
aF191.0
aF184.0
aF185.0
aF187.0
aF209.0
aF230.0
aF229.0
aF203.0
aF214.0
aF230.0
aF236.0
aF250.0
aF239.0
aF173.0
aF191.0
aF202.0
aF210.0
aF209.0
aF201.0
aF198.0
aF189.0
aF187.0
aF202.0
aF208.0
aF221.0
aF222.0
aF201.0
aF203.0
aF247.0
aF248.0
aF240.0
aF244.0
aF182.0
aF186.0
aF200.0
aF205.0
aF199.0
aF194.0
aF187.0
aF180.0
aF175.0
aF195.0
aF195.0
aF215.0
aF246.0
aF267.0
aF208.0
aF249.0
aF247.0
aF247.0
aF240.0
asS'humidity'
p16
(lp17
F83.0
aF82.0
aF61.0
aF62.0
aF47.0
aF35.0
aF33.0
aF18.0
aF21.0
aF26.0
aF24.0
aF33.0
aF57.0
aF96.0
aF100.0
aF100.0
aF63.0
aF4.0
aF84.0
aF80.0
aF72.0
aF65.0
aF40.0
aF31.0
aF34.0
aF26.0
aF4.0
aF12.0
aF36.0
aF39.0
aF58.0
aF98.0
aF100.0
aF100.0
aF79.0
aF4.0
aF86.0
aF81.0
aF75.0
aF66.0
aF51.0
aF36.0
aF26.0
aF26.0
aF23.0
aF15.0
aF18.0
aF21.0
aF17.0
aF26.0
aF54.0
aF100.0
aF100.0
aF85.0
aF3.0
aF86.0
aF82.0
aF74.0
aF73.0
aF50.0
aF24.0
aF22.0
aF28.0
aF28.0
aF7.0
aF3.0
aF7.0
aF18.0
aF36.0
aF61.0
aF94.0
aF100.0
aF94.0
aF4.0
asS'longitude'
p18
(lp19
S'-101.0000'
p20
ag10
ag10
ag10
ag10
ag10
ag10
ag10
ag10
ag10
ag10
ag10
ag10
ag10
ag10
ag10
ag10
ag10
aS'-101.0000'
p21
ag10
ag10
ag10
ag10
ag10
ag10
ag10
ag10
ag10
ag10
ag10
ag10
ag10
ag10
ag10
ag10
ag10
aS'-100.0000'
p22
ag10
ag10
ag10
ag10
ag10
ag10
ag10
ag10
ag10
ag10
ag10
ag10
ag10
ag10
ag10
ag10
ag10
ag10
aS'-100.0000'
p23
ag10
ag10
ag10
ag10
ag10
ag10
ag10
ag10
ag10
ag10
ag10
ag10
ag10
ag10
ag10
ag10
ag10
ag10
asS'height'
p24
(lp25
F879.0
aF1017.0
aF1506.0
aF2021.0
aF2563.0
aF3135.0
aF3740.0
aF4384.0
aF5071.0
aF5810.0
aF6612.0
aF7490.0
aF8460.0
aF9542.0
aF10770.0
aF12196.0
aF13958.0
aF16451.0
aF866.0
aF1025.0
aF1514.0
aF2028.0
aF2569.0
aF3140.0
aF3745.0
aF4387.0
aF5074.0
aF5814.0
aF6616.0
aF7494.0
aF8465.0
aF9548.0
aF10778.0
aF12208.0
aF13970.0
aF16461.0
aF631.0
aF790.0
aF1026.0
aF1516.0
aF2031.0
aF2572.0
aF3143.0
aF3747.0
aF4389.0
aF5076.0
aF5816.0
aF6618.0
aF7494.0
aF8464.0
aF9547.0
aF10775.0
aF12204.0
aF13966.0
aF16457.0
aF731.0
aF796.0
aF1031.0
aF1521.0
aF2035.0
aF2577.0
aF3149.0
aF3753.0
aF4394.0
aF5080.0
aF5820.0
aF6621.0
aF7498.0
aF8467.0
aF9552.0
aF10784.0
aF12217.0
aF13979.0
aF16467.0
as.