(dp0
S'wind_speed'
p1
(lp2
F6.0
aF16.0
aF31.0
aF30.0
aF22.0
aF18.0
aF17.0
aF18.0
aF18.0
aF16.0
aF17.0
aF18.0
aF20.0
aF20.0
aF20.0
aF18.0
aF29.0
aF18.0
aF6.0
aF15.0
aF28.0
aF27.0
aF20.0
aF15.0
aF14.0
aF15.0
aF17.0
aF18.0
aF18.0
aF16.0
aF14.0
aF12.0
aF11.0
aF11.0
aF30.0
aF21.0
aF2.0
aF11.0
aF20.0
aF28.0
aF24.0
aF15.0
aF10.0
aF16.0
aF13.0
aF11.0
aF11.0
aF11.0
aF14.0
aF15.0
aF13.0
aF15.0
aF15.0
aF27.0
aF20.0
aF5.0
aF10.0
aF21.0
aF29.0
aF23.0
aF13.0
aF4.0
aF10.0
aF11.0
aF8.0
aF6.0
aF5.0
aF9.0
aF12.0
aF12.0
aF12.0
aF11.0
aF28.0
aF22.0
asS'pressure'
p3
(lp4
F915.2
aF900.0
aF850.0
aF800.0
aF750.0
aF700.0
aF650.0
aF600.0
aF550.0
aF500.0
aF450.0
aF400.0
aF350.0
aF300.0
aF250.0
aF200.0
aF150.0
aF100.0
aF917.1
aF900.0
aF850.0
aF800.0
aF750.0
aF700.0
aF650.0
aF600.0
aF550.0
aF500.0
aF450.0
aF400.0
aF350.0
aF300.0
aF250.0
aF200.0
aF150.0
aF100.0
aF943.1
aF925.0
aF900.0
aF850.0
aF800.0
aF750.0
aF700.0
aF650.0
aF600.0
aF550.0
aF500.0
aF450.0
aF400.0
aF350.0
aF300.0
aF250.0
aF200.0
aF150.0
aF100.0
aF932.6
aF925.0
aF900.0
aF850.0
aF800.0
aF750.0
aF700.0
aF650.0
aF600.0
aF550.0
aF500.0
aF450.0
aF400.0
aF350.0
aF300.0
aF250.0
aF200.0
aF150.0
aF100.0
asS'temperature'
p5
(lp6
F19.7
aF19.6
aF16.9
aF14.5
aF12.2
aF9.0
aF4.0
aF-1.4
aF-6.1
aF-10.8
aF-15.8
aF-21.4
aF-28.4
aF-37.1
aF-47.2
aF-60.3
aF-64.6
aF-62.7
aF19.9
aF19.2
aF18.1
aF14.7
aF11.2
aF7.9
aF4.0
aF-0.8
aF-5.8
aF-10.4
aF-15.3
aF-21.4
aF-28.4
aF-37.0
aF-47.1
aF-59.6
aF-65.0
aF-63.8
aF20.1
aF20.0
aF19.2
aF18.0
aF14.2
aF10.2
aF6.2
aF3.2
aF-0.8
aF-5.4
aF-10.3
aF-15.4
aF-21.2
aF-28.5
aF-37.0
aF-47.1
aF-59.8
aF-65.4
aF-63.1
aF19.4
aF19.2
aF18.7
aF17.2
aF13.8
aF10.6
aF7.6
aF4.0
aF-0.8
aF-5.8
aF-10.4
aF-15.3
aF-21.2
aF-28.3
aF-36.9
aF-47.0
aF-59.3
aF-66.1
aF-64.1
asS'latitude'
p7
(lp8
S'37.0000'
p9
aS''
p10
ag10
ag10
ag10
ag10
ag10
ag10
ag10
ag10
ag10
ag10
ag10
ag10
ag10
ag10
ag10
ag10
aS'36.0000'
p11
ag10
ag10
ag10
ag10
ag10
ag10
ag10
ag10
ag10
ag10
ag10
ag10
ag10
ag10
ag10
ag10
ag10
aS'37.0000'
p12
ag10
ag10
ag10
ag10
ag10
ag10
ag10
ag10
ag10
ag10
ag10
ag10
ag10
ag10
ag10
ag10
ag10
ag10
aS'36.0000'
p13
ag10
ag10
ag10
ag10
ag10
ag10
ag10
ag10
ag10
ag10
ag10
ag10
ag10
ag10
ag10
ag10
ag10
ag10
asS'wind_direction'
p14
(lp15
F217.0
aF212.0
aF216.0
aF219.0
aF208.0
aF195.0
aF193.0
aF187.0
aF183.0
aF193.0
aF200.0
aF209.0
aF219.0
aF220.0
aF223.0
aF218.0
aF227.0
aF218.0
aF203.0
aF200.0
aF218.0
aF220.0
aF218.0
aF198.0
aF183.0
aF173.0
aF176.0
aF208.0
aF216.0
aF214.0
aF219.0
aF217.0
aF227.0
aF243.0
aF222.0
aF213.0
aF167.0
aF189.0
aF206.0
aF223.0
aF229.0
aF229.0
aF179.0
aF179.0
aF178.0
aF167.0
aF169.0
aF199.0
aF210.0
aF202.0
aF223.0
aF245.0
aF240.0
aF226.0
aF222.0
aF183.0
aF186.0
aF199.0
aF214.0
aF219.0
aF231.0
aF186.0
aF164.0
aF178.0
aF179.0
aF167.0
aF186.0
aF208.0
aF204.0
aF219.0
aF242.0
aF237.0
aF225.0
aF220.0
asS'humidity'
p16
(lp17
F72.0
aF69.0
aF77.0
aF66.0
aF52.0
aF54.0
aF60.0
aF70.0
aF64.0
aF72.0
aF87.0
aF97.0
aF99.0
aF100.0
aF100.0
aF100.0
aF100.0
aF1.0
aF79.0
aF79.0
aF70.0
aF74.0
aF70.0
aF65.0
aF52.0
aF44.0
aF37.0
aF45.0
aF59.0
aF80.0
aF97.0
aF100.0
aF100.0
aF100.0
aF100.0
aF1.0
aF80.0
aF76.0
aF75.0
aF67.0
aF71.0
aF80.0
aF81.0
aF42.0
aF41.0
aF37.0
aF24.0
aF19.0
aF35.0
aF57.0
aF94.0
aF100.0
aF100.0
aF88.0
aF1.0
aF82.0
aF81.0
aF82.0
aF79.0
aF85.0
aF75.0
aF46.0
aF23.0
aF33.0
aF40.0
aF24.0
aF13.0
aF14.0
aF23.0
aF66.0
aF100.0
aF100.0
aF77.0
aF1.0
asS'longitude'
p18
(lp19
S'-101.0000'
p20
ag10
ag10
ag10
ag10
ag10
ag10
ag10
ag10
ag10
ag10
ag10
ag10
ag10
ag10
ag10
ag10
ag10
aS'-101.0000'
p21
ag10
ag10
ag10
ag10
ag10
ag10
ag10
ag10
ag10
ag10
ag10
ag10
ag10
ag10
ag10
ag10
ag10
aS'-100.0000'
p22
ag10
ag10
ag10
ag10
ag10
ag10
ag10
ag10
ag10
ag10
ag10
ag10
ag10
ag10
ag10
ag10
ag10
ag10
aS'-100.0000'
p23
ag10
ag10
ag10
ag10
ag10
ag10
ag10
ag10
ag10
ag10
ag10
ag10
ag10
ag10
ag10
ag10
ag10
ag10
asS'height'
p24
(lp25
F879.0
aF1024.0
aF1515.0
aF2031.0
aF2574.0
aF3149.0
aF3758.0
aF4402.0
aF5090.0
aF5829.0
aF6631.0
aF7510.0
aF8481.0
aF9566.0
aF10798.0
aF12232.0
aF13985.0
aF16476.0
aF866.0
aF1029.0
aF1520.0
aF2037.0
aF2580.0
aF3153.0
aF3761.0
aF4406.0
aF5094.0
aF5834.0
aF6637.0
aF7516.0
aF8487.0
aF9572.0
aF10805.0
aF12240.0
aF13993.0
aF16482.0
aF631.0
aF798.0
aF1034.0
aF1526.0
aF2042.0
aF2584.0
aF3155.0
aF3760.0
aF4404.0
aF5093.0
aF5833.0
aF6636.0
aF7514.0
aF8485.0
aF9570.0
aF10803.0
aF12238.0
aF13990.0
aF16479.0
aF731.0
aF802.0
aF1038.0
aF1529.0
aF2045.0
aF2587.0
aF3159.0
aF3765.0
aF4410.0
aF5098.0
aF5837.0
aF6640.0
aF7519.0
aF8490.0
aF9575.0
aF10809.0
aF12246.0
aF14001.0
aF16487.0
as.