(dp0
S'wind_speed'
p1
(lp2
F21.0
aF25.0
aF27.0
aF28.0
aF28.0
aF26.0
aF18.0
aF14.0
aF14.0
aF14.0
aF14.0
aF12.0
aF10.0
aF14.0
aF12.0
aF8.0
aF8.0
aF15.0
aF42.0
aF46.0
aF52.0
aF23.0
aF20.0
aF24.0
aF26.0
aF27.0
aF27.0
aF25.0
aF17.0
aF14.0
aF15.0
aF15.0
aF14.0
aF13.0
aF11.0
aF11.0
aF11.0
aF8.0
aF9.0
aF16.0
aF41.0
aF49.0
aF53.0
aF23.0
aF19.0
aF23.0
aF25.0
aF26.0
aF26.0
aF25.0
aF19.0
aF16.0
aF17.0
aF16.0
aF14.0
aF12.0
aF10.0
aF9.0
aF9.0
aF8.0
aF10.0
aF19.0
aF41.0
aF53.0
aF56.0
aF23.0
aF21.0
aF25.0
aF27.0
aF28.0
aF28.0
aF27.0
aF20.0
aF15.0
aF14.0
aF13.0
aF9.0
aF6.0
aF10.0
aF8.0
aF10.0
aF6.0
aF8.0
aF17.0
aF46.0
aF55.0
aF61.0
aF25.0
aF21.0
aF25.0
aF26.0
aF27.0
aF28.0
aF26.0
aF20.0
aF16.0
aF15.0
aF14.0
aF11.0
aF8.0
aF9.0
aF5.0
aF8.0
aF7.0
aF10.0
aF19.0
aF45.0
aF57.0
aF62.0
aF25.0
aF20.0
aF24.0
aF25.0
aF26.0
aF26.0
aF25.0
aF20.0
aF17.0
aF15.0
aF14.0
aF11.0
aF8.0
aF8.0
aF3.0
aF6.0
aF7.0
aF12.0
aF22.0
aF45.0
aF59.0
aF61.0
aF26.0
aF21.0
aF25.0
aF27.0
aF28.0
aF28.0
aF27.0
aF22.0
aF17.0
aF14.0
aF11.0
aF4.0
aF5.0
aF8.0
aF5.0
aF7.0
aF4.0
aF8.0
aF19.0
aF49.0
aF62.0
aF65.0
aF27.0
aF20.0
aF24.0
aF26.0
aF27.0
aF27.0
aF27.0
aF23.0
aF17.0
aF15.0
aF12.0
aF5.0
aF4.0
aF8.0
aF3.0
aF5.0
aF6.0
aF11.0
aF21.0
aF48.0
aF63.0
aF64.0
aF29.0
aF20.0
aF24.0
aF25.0
aF26.0
aF26.0
aF26.0
aF25.0
aF19.0
aF15.0
aF12.0
aF6.0
aF4.0
aF7.0
aF1.0
aF5.0
aF7.0
aF13.0
aF24.0
aF47.0
aF66.0
aF62.0
aF30.0
asS'pressure'
p3
(lp4
F1013.4
aF1000.0
aF975.0
aF950.0
aF925.0
aF900.0
aF850.0
aF800.0
aF750.0
aF700.0
aF650.0
aF600.0
aF550.0
aF500.0
aF450.0
aF400.0
aF350.0
aF300.0
aF250.0
aF200.0
aF150.0
aF100.0
aF1013.5
aF1000.0
aF975.0
aF950.0
aF925.0
aF900.0
aF850.0
aF800.0
aF750.0
aF700.0
aF650.0
aF600.0
aF550.0
aF500.0
aF450.0
aF400.0
aF350.0
aF300.0
aF250.0
aF200.0
aF150.0
aF100.0
aF1013.7
aF1000.0
aF975.0
aF950.0
aF925.0
aF900.0
aF850.0
aF800.0
aF750.0
aF700.0
aF650.0
aF600.0
aF550.0
aF500.0
aF450.0
aF400.0
aF350.0
aF300.0
aF250.0
aF200.0
aF150.0
aF100.0
aF1014.1
aF1000.0
aF975.0
aF950.0
aF925.0
aF900.0
aF850.0
aF800.0
aF750.0
aF700.0
aF650.0
aF600.0
aF550.0
aF500.0
aF450.0
aF400.0
aF350.0
aF300.0
aF250.0
aF200.0
aF150.0
aF100.0
aF1014.2
aF1000.0
aF975.0
aF950.0
aF925.0
aF900.0
aF850.0
aF800.0
aF750.0
aF700.0
aF650.0
aF600.0
aF550.0
aF500.0
aF450.0
aF400.0
aF350.0
aF300.0
aF250.0
aF200.0
aF150.0
aF100.0
aF1014.3
aF1000.0
aF975.0
aF950.0
aF925.0
aF900.0
aF850.0
aF800.0
aF750.0
aF700.0
aF650.0
aF600.0
aF550.0
aF500.0
aF450.0
aF400.0
aF350.0
aF300.0
aF250.0
aF200.0
aF150.0
aF100.0
aF1014.8
aF1000.0
aF975.0
aF950.0
aF925.0
aF900.0
aF850.0
aF800.0
aF750.0
aF700.0
aF650.0
aF600.0
aF550.0
aF500.0
aF450.0
aF400.0
aF350.0
aF300.0
aF250.0
aF200.0
aF150.0
aF100.0
aF1014.9
aF1000.0
aF975.0
aF950.0
aF925.0
aF900.0
aF850.0
aF800.0
aF750.0
aF700.0
aF650.0
aF600.0
aF550.0
aF500.0
aF450.0
aF400.0
aF350.0
aF300.0
aF250.0
aF200.0
aF150.0
aF100.0
aF1015.1
aF1000.0
aF975.0
aF950.0
aF925.0
aF900.0
aF850.0
aF800.0
aF750.0
aF700.0
aF650.0
aF600.0
aF550.0
aF500.0
aF450.0
aF400.0
aF350.0
aF300.0
aF250.0
aF200.0
aF150.0
aF100.0
asS'temperature'
p5
(lp6
F27.1
aF26.1
aF23.9
aF22.0
aF20.2
aF18.6
aF17.9
aF15.9
aF13.1
aF10.0
aF6.5
aF2.2
aF-1.0
aF-5.8
aF-8.4
aF-15.2
aF-23.1
aF-31.8
aF-41.0
aF-52.7
aF-65.8
aF-77.2
aF27.1
aF26.0
aF23.9
aF21.9
aF20.0
aF18.5
aF18.7
aF16.1
aF13.1
aF10.0
aF6.5
aF2.5
aF-1.3
aF-5.8
aF-8.3
aF-15.2
aF-23.2
aF-31.8
aF-41.1
aF-52.7
aF-65.8
aF-77.3
aF26.8
aF25.7
aF23.6
aF21.6
aF19.7
aF18.4
aF18.8
aF16.7
aF13.5
aF10.2
aF6.8
aF2.8
aF-1.1
aF-5.5
aF-8.4
aF-15.3
aF-23.2
aF-31.7
aF-41.1
aF-52.8
aF-65.8
aF-77.6
aF26.6
aF25.4
aF23.2
aF21.2
aF19.5
aF18.2
aF16.4
aF16.2
aF13.1
aF10.2
aF6.9
aF2.5
aF-1.6
aF-4.4
aF-8.8
aF-15.5
aF-23.5
aF-32.2
aF-41.0
aF-52.7
aF-65.9
aF-76.8
aF26.6
aF25.4
aF23.2
aF21.2
aF19.2
aF18.1
aF16.6
aF16.7
aF13.2
aF10.1
aF6.9
aF2.7
aF-1.9
aF-4.1
aF-8.8
aF-15.5
aF-23.5
aF-32.1
aF-41.1
aF-52.9
aF-65.9
aF-77.1
aF26.7
aF25.5
aF23.4
aF21.2
aF19.2
aF17.4
aF17.5
aF17.2
aF13.6
aF10.1
aF6.8
aF2.8
aF-1.8
aF-4.1
aF-8.6
aF-15.5
aF-23.5
aF-32.0
aF-41.1
aF-53.1
aF-65.9
aF-77.2
aF26.2
aF25.1
aF23.1
aF21.1
aF19.2
aF17.2
aF17.4
aF16.5
aF13.1
aF10.0
aF6.7
aF2.8
aF-1.1
aF-4.0
aF-9.0
aF-15.8
aF-23.9
aF-32.6
aF-41.1
aF-53.0
aF-66.0
aF-76.7
aF26.2
aF25.1
aF23.0
aF21.0
aF19.0
aF17.0
aF17.2
aF17.0
aF13.4
aF10.0
aF6.6
aF2.8
aF-1.1
aF-4.0
aF-9.0
aF-15.8
aF-23.9
aF-32.4
aF-41.1
aF-53.2
aF-66.0
aF-77.0
aF26.4
aF25.1
aF23.0
aF20.9
aF18.8
aF16.9
aF16.4
aF17.1
aF13.8
aF10.0
aF6.7
aF2.7
aF-1.1
aF-3.9
aF-8.8
aF-15.8
aF-23.9
aF-32.2
aF-41.3
aF-53.3
aF-65.9
aF-76.9
asS'latitude'
p7
(lp8
S'13.0000'
p9
aS''
p10
ag10
ag10
ag10
ag10
ag10
ag10
ag10
ag10
ag10
ag10
ag10
ag10
ag10
ag10
ag10
ag10
ag10
ag10
ag10
ag10
aS'13.0000'
p11
ag10
ag10
ag10
ag10
ag10
ag10
ag10
ag10
ag10
ag10
ag10
ag10
ag10
ag10
ag10
ag10
ag10
ag10
ag10
ag10
ag10
aS'13.0000'
p12
ag10
ag10
ag10
ag10
ag10
ag10
ag10
ag10
ag10
ag10
ag10
ag10
ag10
ag10
ag10
ag10
ag10
ag10
ag10
ag10
ag10
aS'14.0000'
p13
ag10
ag10
ag10
ag10
ag10
ag10
ag10
ag10
ag10
ag10
ag10
ag10
ag10
ag10
ag10
ag10
ag10
ag10
ag10
ag10
ag10
aS'14.0000'
p14
ag10
ag10
ag10
ag10
ag10
ag10
ag10
ag10
ag10
ag10
ag10
ag10
ag10
ag10
ag10
ag10
ag10
ag10
ag10
ag10
ag10
aS'14.0000'
p15
ag10
ag10
ag10
ag10
ag10
ag10
ag10
ag10
ag10
ag10
ag10
ag10
ag10
ag10
ag10
ag10
ag10
ag10
ag10
ag10
ag10
aS'15.0000'
p16
ag10
ag10
ag10
ag10
ag10
ag10
ag10
ag10
ag10
ag10
ag10
ag10
ag10
ag10
ag10
ag10
ag10
ag10
ag10
ag10
ag10
aS'15.0000'
p17
ag10
ag10
ag10
ag10
ag10
ag10
ag10
ag10
ag10
ag10
ag10
ag10
ag10
ag10
ag10
ag10
ag10
ag10
ag10
ag10
ag10
aS'15.0000'
p18
ag10
ag10
ag10
ag10
ag10
ag10
ag10
ag10
ag10
ag10
ag10
ag10
ag10
ag10
ag10
ag10
ag10
ag10
ag10
ag10
ag10
asS'wind_direction'
p19
(lp20
F75.0
aF76.0
aF77.0
aF77.0
aF79.0
aF81.0
aF88.0
aF89.0
aF89.0
aF95.0
aF100.0
aF108.0
aF132.0
aF129.0
aF88.0
aF74.0
aF9.0
aF315.0
aF281.0
aF269.0
aF273.0
aF272.0
aF73.0
aF73.0
aF74.0
aF75.0
aF76.0
aF78.0
aF89.0
aF90.0
aF91.0
aF92.0
aF98.0
aF112.0
aF132.0
aF121.0
aF74.0
aF57.0
aF360.0
aF320.0
aF288.0
aF278.0
aF278.0
aF276.0
aF69.0
aF69.0
aF70.0
aF71.0
aF72.0
aF78.0
aF90.0
aF89.0
aF91.0
aF92.0
aF93.0
aF113.0
aF128.0
aF120.0
aF61.0
aF45.0
aF354.0
aF325.0
aF295.0
aF287.0
aF283.0
aF279.0
aF74.0
aF75.0
aF75.0
aF76.0
aF78.0
aF83.0
aF88.0
aF85.0
aF93.0
aF99.0
aF107.0
aF140.0
aF165.0
aF128.0
aF90.0
aF64.0
aF350.0
aF308.0
aF280.0
aF270.0
aF275.0
aF276.0
aF73.0
aF73.0
aF74.0
aF74.0
aF76.0
aF80.0
aF86.0
aF89.0
aF94.0
aF99.0
aF99.0
aF124.0
aF160.0
aF119.0
aF74.0
aF45.0
aF347.0
aF313.0
aF287.0
aF278.0
aF280.0
aF280.0
aF70.0
aF70.0
aF71.0
aF72.0
aF74.0
aF77.0
aF86.0
aF88.0
aF94.0
aF99.0
aF93.0
aF116.0
aF159.0
aF103.0
aF53.0
aF25.0
aF343.0
aF320.0
aF294.0
aF286.0
aF283.0
aF282.0
aF76.0
aF77.0
aF78.0
aF79.0
aF80.0
aF81.0
aF84.0
aF89.0
aF105.0
aF118.0
aF144.0
aF201.0
aF188.0
aF111.0
aF90.0
aF53.0
aF336.0
aF305.0
aF279.0
aF271.0
aF277.0
aF280.0
aF76.0
aF76.0
aF77.0
aF77.0
aF78.0
aF80.0
aF83.0
aF88.0
aF102.0
aF113.0
aF131.0
aF213.0
aF203.0
aF101.0
aF66.0
aF20.0
aF336.0
aF310.0
aF287.0
aF278.0
aF280.0
aF282.0
aF75.0
aF76.0
aF76.0
aF77.0
aF77.0
aF78.0
aF83.0
aF85.0
aF94.0
aF108.0
aF112.0
aF207.0
aF214.0
aF57.0
aF33.0
aF3.0
aF335.0
aF317.0
aF294.0
aF285.0
aF283.0
aF283.0
asS'humidity'
p21
(lp22
F79.0
aF75.0
aF80.0
aF86.0
aF90.0
aF94.0
aF76.0
aF77.0
aF75.0
aF75.0
aF68.0
aF81.0
aF74.0
aF86.0
aF15.0
aF22.0
aF27.0
aF55.0
aF60.0
aF52.0
aF44.0
aF55.0
aF78.0
aF74.0
aF78.0
aF84.0
aF88.0
aF90.0
aF60.0
aF70.0
aF74.0
aF74.0
aF72.0
aF82.0
aF92.0
aF86.0
aF13.0
aF20.0
aF27.0
aF47.0
aF55.0
aF45.0
aF44.0
aF56.0
aF78.0
aF74.0
aF79.0
aF85.0
aF90.0
aF89.0
aF41.0
aF43.0
aF60.0
aF72.0
aF68.0
aF74.0
aF85.0
aF80.0
aF13.0
aF18.0
aF24.0
aF37.0
aF45.0
aF43.0
aF43.0
aF58.0
aF79.0
aF76.0
aF81.0
aF87.0
aF92.0
aF91.0
aF87.0
aF60.0
aF68.0
aF55.0
aF38.0
aF54.0
aF70.0
aF12.0
aF15.0
aF22.0
aF33.0
aF64.0
aF64.0
aF49.0
aF49.0
aF49.0
aF78.0
aF75.0
aF80.0
aF86.0
aF91.0
aF91.0
aF80.0
aF51.0
aF69.0
aF66.0
aF46.0
aF57.0
aF87.0
aF10.0
aF15.0
aF20.0
aF31.0
aF51.0
aF53.0
aF48.0
aF47.0
aF51.0
aF76.0
aF72.0
aF77.0
aF83.0
aF89.0
aF94.0
aF59.0
aF38.0
aF56.0
aF70.0
aF51.0
aF61.0
aF87.0
aF8.0
aF15.0
aF18.0
aF26.0
aF39.0
aF43.0
aF51.0
aF45.0
aF52.0
aF78.0
aF74.0
aF78.0
aF84.0
aF89.0
aF94.0
aF58.0
aF50.0
aF59.0
aF40.0
aF26.0
aF42.0
aF36.0
aF7.0
aF18.0
aF23.0
aF43.0
aF69.0
aF61.0
aF58.0
aF49.0
aF47.0
aF77.0
aF72.0
aF77.0
aF83.0
aF90.0
aF96.0
aF55.0
aF41.0
aF58.0
aF55.0
aF33.0
aF37.0
aF34.0
aF7.0
aF19.0
aF20.0
aF35.0
aF52.0
aF50.0
aF59.0
aF46.0
aF50.0
aF74.0
aF70.0
aF75.0
aF82.0
aF90.0
aF98.0
aF61.0
aF34.0
aF48.0
aF63.0
aF36.0
aF39.0
aF38.0
aF7.0
aF19.0
aF19.0
aF28.0
aF38.0
aF44.0
aF61.0
aF42.0
aF49.0
asS'longitude'
p23
(lp24
S'-144.0000'
p25
ag10
ag10
ag10
ag10
ag10
ag10
ag10
ag10
ag10
ag10
ag10
ag10
ag10
ag10
ag10
ag10
ag10
ag10
ag10
ag10
ag10
aS'-143.0000'
p26
ag10
ag10
ag10
ag10
ag10
ag10
ag10
ag10
ag10
ag10
ag10
ag10
ag10
ag10
ag10
ag10
ag10
ag10
ag10
ag10
ag10
aS'-142.0000'
p27
ag10
ag10
ag10
ag10
ag10
ag10
ag10
ag10
ag10
ag10
ag10
ag10
ag10
ag10
ag10
ag10
ag10
ag10
ag10
ag10
ag10
aS'-144.0000'
p28
ag10
ag10
ag10
ag10
ag10
ag10
ag10
ag10
ag10
ag10
ag10
ag10
ag10
ag10
ag10
ag10
ag10
ag10
ag10
ag10
ag10
aS'-143.0000'
p29
ag10
ag10
ag10
ag10
ag10
ag10
ag10
ag10
ag10
ag10
ag10
ag10
ag10
ag10
ag10
ag10
ag10
ag10
ag10
ag10
ag10
aS'-142.0000'
p30
ag10
ag10
ag10
ag10
ag10
ag10
ag10
ag10
ag10
ag10
ag10
ag10
ag10
ag10
ag10
ag10
ag10
ag10
ag10
ag10
ag10
aS'-144.0000'
p31
ag10
ag10
ag10
ag10
ag10
ag10
ag10
ag10
ag10
ag10
ag10
ag10
ag10
ag10
ag10
ag10
ag10
ag10
ag10
ag10
ag10
aS'-143.0000'
p32
ag10
ag10
ag10
ag10
ag10
ag10
ag10
ag10
ag10
ag10
ag10
ag10
ag10
ag10
ag10
ag10
ag10
ag10
ag10
ag10
ag10
aS'-142.0000'
p33
ag10
ag10
ag10
ag10
ag10
ag10
ag10
ag10
ag10
ag10
ag10
ag10
ag10
ag10
ag10
ag10
ag10
ag10
ag10
ag10
ag10
asS'height'
p34
(lp35
F0.0
aF117.0
aF340.0
aF568.0
aF799.0
aF1036.0
aF1526.0
aF2044.0
aF2591.0
aF3169.0
aF3782.0
aF4435.0
aF5134.0
aF5888.0
aF6711.0
aF7612.0
aF8605.0
aF9713.0
aF10977.0
aF12455.0
aF14253.0
aF16631.0
aF0.0
aF118.0
aF341.0
aF568.0
aF800.0
aF1036.0
aF1526.0
aF2045.0
aF2592.0
aF3170.0
aF3783.0
aF4436.0
aF5135.0
aF5890.0
aF6713.0
aF7615.0
aF8607.0
aF9716.0
aF10979.0
aF12456.0
aF14254.0
aF16633.0
aF0.0
aF120.0
aF343.0
aF569.0
aF801.0
aF1037.0
aF1527.0
aF2045.0
aF2592.0
aF3170.0
aF3784.0
aF4437.0
aF5137.0
aF5892.0
aF6715.0
aF7617.0
aF8609.0
aF9717.0
aF10981.0
aF12458.0
aF14255.0
aF16634.0
aF0.0
aF123.0
aF346.0
aF572.0
aF803.0
aF1039.0
aF1529.0
aF2047.0
aF2594.0
aF3171.0
aF3784.0
aF4436.0
aF5135.0
aF5889.0
aF6713.0
aF7613.0
aF8604.0
aF9711.0
aF10973.0
aF12451.0
aF14247.0
aF16628.0
aF0.0
aF124.0
aF346.0
aF573.0
aF804.0
aF1040.0
aF1529.0
aF2047.0
aF2594.0
aF3172.0
aF3785.0
aF4438.0
aF5137.0
aF5891.0
aF6715.0
aF7615.0
aF8606.0
aF9713.0
aF10975.0
aF12453.0
aF14248.0
aF16630.0
aF0.0
aF125.0
aF348.0
aF574.0
aF805.0
aF1041.0
aF1529.0
aF2048.0
aF2595.0
aF3173.0
aF3786.0
aF4439.0
aF5138.0
aF5893.0
aF6717.0
aF7617.0
aF8608.0
aF9715.0
aF10978.0
aF12454.0
aF14249.0
aF16630.0
aF0.0
aF129.0
aF351.0
aF578.0
aF809.0
aF1044.0
aF1532.0
aF2050.0
aF2596.0
aF3173.0
aF3785.0
aF4437.0
aF5136.0
aF5891.0
aF6714.0
aF7613.0
aF8604.0
aF9708.0
aF10969.0
aF12446.0
aF14240.0
aF16624.0
aF0.0
aF130.0
aF352.0
aF578.0
aF809.0
aF1044.0
aF1532.0
aF2050.0
aF2597.0
aF3174.0
aF3786.0
aF4438.0
aF5137.0
aF5893.0
aF6716.0
aF7615.0
aF8605.0
aF9711.0
aF10972.0
aF12448.0
aF14241.0
aF16626.0
aF0.0
aF131.0
aF353.0
aF580.0
aF810.0
aF1045.0
aF1532.0
aF2050.0
aF2597.0
aF3175.0
aF3787.0
aF4440.0
aF5138.0
aF5894.0
aF6717.0
aF7617.0
aF8607.0
aF9712.0
aF10974.0
aF12449.0
aF14241.0
aF16626.0
as.